; Function Attrs: mustprogress nofree norecurse nosync nounwind willreturn memory(readwrite, inaccessiblemem: none) uwtable
define hidden void @_ZThn112_N3sls6solver12set_finishedEv(ptr noundef readonly captures(none) %0) unnamed_addr #15 align 2 {
  %2 = getelementptr inbounds i8, ptr %0, i64 -32
  %3 = load ptr, ptr %2, align 8, !tbaa !411
  %4 = getelementptr inbounds nuw i8, ptr %3, i64 24
  %5 = load ptr, ptr %4, align 8, !tbaa !407
  %6 = getelementptr inbounds nuw i8, ptr %5, i64 3833
  store i8 1, ptr %6, align 1, !tbaa !416
  ret void
}